target datalayout = "e-m:e-p270:32:32-p271:32:32-p272:64:64-i64:64-i128:128-f80:128-n8:16:32:64-S128"
target triple = "x86_64-pc-linux-gnu"

%struct.timeval = type { i64, i64 }
%struct._logentry = type { i32, i8, i16, i64, %struct.timeval, i32, [0 x %union.anon] }
%union.anon = type { i8 }
%struct.logentry_deletion = type { i32, i32, i8, i8, [0 x i8] }

@.str.30 = private unnamed_addr constant [3 x i8] c"na\00", align 1
@__const._logger_parse_ide.cmd_map = private unnamed_addr constant [3 x ptr] [ptr @.str.36, ptr @.str.54, ptr @.str.55], align 16
@.str.56 = private unnamed_addr constant [63 x i8] c"ts=%d.%d gid=%llu type=deleted key=%s cmd=%s clsid=%u size=%d\0A\00", align 1

; Function Attrs: nounwind uwtable
define internal i32 @_logger_parse_ide(ptr noundef %0, ptr noundef %1) #0 {
  %3 = alloca ptr, align 8
  %4 = alloca ptr, align 8
  %5 = alloca i32, align 4
  %6 = alloca ptr, align 8
  %7 = alloca [3 x ptr], align 16
  %8 = alloca [751 x i8], align 16
  %9 = alloca ptr, align 8
  store ptr %0, ptr %3, align 8, !tbaa !33
  store ptr %1, ptr %4, align 8, !tbaa !63
  call void @llvm.lifetime.start.p0(i64 4, ptr %5) #11
  call void @llvm.lifetime.start.p0(i64 8, ptr %6) #11
  store ptr @.str.30, ptr %6, align 8, !tbaa !63
  call void @llvm.lifetime.start.p0(i64 24, ptr %7) #11
  call void @llvm.memcpy.p0.p0.i64(ptr align 16 %7, ptr align 16 @__const._logger_parse_ide.cmd_map, i64 24, i1 false)
  call void @llvm.lifetime.start.p0(i64 751, ptr %8) #11
  call void @llvm.lifetime.start.p0(i64 8, ptr %9) #11
  %10 = load ptr, ptr %3, align 8, !tbaa !33
  %11 = getelementptr inbounds nuw %struct._logentry, ptr %10, i32 0, i32 6
  %12 = getelementptr inbounds [0 x %union.anon], ptr %11, i64 0, i64 0
  store ptr %12, ptr %9, align 8, !tbaa !128
  %13 = load ptr, ptr %9, align 8, !tbaa !128
  %14 = getelementptr inbounds nuw %struct.logentry_deletion, ptr %13, i32 0, i32 4
  %15 = getelementptr inbounds [0 x i8], ptr %14, i64 0, i64 0
  %16 = getelementptr inbounds [751 x i8], ptr %8, i64 0, i64 0
  %17 = load ptr, ptr %9, align 8, !tbaa !128
  %18 = getelementptr inbounds nuw %struct.logentry_deletion, ptr %17, i32 0, i32 2
  %19 = load i8, ptr %18, align 4, !tbaa !36
  %20 = zext i8 %19 to i64
  %21 = call zeroext i1 @uriencode(ptr noundef %15, ptr noundef %16, i64 noundef %20, i64 noundef 751)
  %22 = load ptr, ptr %9, align 8, !tbaa !128
  %23 = getelementptr inbounds nuw %struct.logentry_deletion, ptr %22, i32 0, i32 1
  %24 = load i32, ptr %23, align 4, !tbaa !11
  %25 = icmp sle i32 %24, 2
  br i1 %25, label %26, label %33

26:                                               ; preds = %2
  %27 = load ptr, ptr %9, align 8, !tbaa !128
  %28 = getelementptr inbounds nuw %struct.logentry_deletion, ptr %27, i32 0, i32 1
  %29 = load i32, ptr %28, align 4, !tbaa !11
  %30 = sext i32 %29 to i64
  %31 = getelementptr inbounds [3 x ptr], ptr %7, i64 0, i64 %30
  %32 = load ptr, ptr %31, align 8, !tbaa !63
  store ptr %32, ptr %6, align 8, !tbaa !63
  br label %33

33:                                               ; preds = %26, %2
  %34 = load ptr, ptr %4, align 8, !tbaa !63
  %35 = load ptr, ptr %3, align 8, !tbaa !33
  %36 = getelementptr inbounds nuw %struct._logentry, ptr %35, i32 0, i32 4
  %37 = getelementptr inbounds nuw %struct.timeval, ptr %36, i32 0, i32 0
  %38 = load i64, ptr %37, align 8, !tbaa !108
  %39 = trunc i64 %38 to i32
  %40 = load ptr, ptr %3, align 8, !tbaa !33
  %41 = getelementptr inbounds nuw %struct._logentry, ptr %40, i32 0, i32 4
  %42 = getelementptr inbounds nuw %struct.timeval, ptr %41, i32 0, i32 1
  %43 = load i64, ptr %42, align 8, !tbaa !109
  %44 = trunc i64 %43 to i32
  %45 = load ptr, ptr %3, align 8, !tbaa !33
  %46 = getelementptr inbounds nuw %struct._logentry, ptr %45, i32 0, i32 3
  %47 = load i64, ptr %46, align 8, !tbaa !4
  %48 = getelementptr inbounds [751 x i8], ptr %8, i64 0, i64 0
  %49 = load ptr, ptr %6, align 8, !tbaa !63
  %50 = load ptr, ptr %9, align 8, !tbaa !128
  %51 = getelementptr inbounds nuw %struct.logentry_deletion, ptr %50, i32 0, i32 3
  %52 = load i8, ptr %51, align 1, !tbaa !36
  %53 = zext i8 %52 to i32
  %54 = load ptr, ptr %9, align 8, !tbaa !128
  %55 = getelementptr inbounds nuw %struct.logentry_deletion, ptr %54, i32 0, i32 0
  %56 = load i32, ptr %55, align 4, !tbaa !11
  %57 = icmp sgt i32 %56, 0
  br i1 %57, label %58, label %63

58:                                               ; preds = %33
  %59 = load ptr, ptr %9, align 8, !tbaa !128
  %60 = getelementptr inbounds nuw %struct.logentry_deletion, ptr %59, i32 0, i32 0
  %61 = load i32, ptr %60, align 4, !tbaa !11
  %62 = sub nsw i32 %61, 2
  br label %64

63:                                               ; preds = %33
  br label %64

64:                                               ; preds = %63, %58
  %65 = phi i32 [ %62, %58 ], [ 0, %63 ]
  %66 = call i32 (ptr, i64, ptr, ...) @snprintf(ptr noundef %34, i64 noundef 4096, ptr noundef @.str.56, i32 noundef %39, i32 noundef %44, i64 noundef %47, ptr noundef %48, ptr noundef %49, i32 noundef %53, i32 noundef %65) #11
  store i32 %66, ptr %5, align 4, !tbaa !11
  %67 = load i32, ptr %5, align 4, !tbaa !11
  call void @llvm.lifetime.end.p0(i64 8, ptr %9) #11
  call void @llvm.lifetime.end.p0(i64 751, ptr %8) #11
  call void @llvm.lifetime.end.p0(i64 24, ptr %7) #11
  call void @llvm.lifetime.end.p0(i64 8, ptr %6) #11
  call void @llvm.lifetime.end.p0(i64 4, ptr %5) #11
  ret i32 %67
}