; Function Attrs: nounwind uwtable
define internal noundef i32 @_logger_parse_ide(ptr noundef %0, ptr noundef writeonly captures(none) %1) #1 {
  %3 = alloca [751 x i8], align 16
  call void @llvm.lifetime.start.p0(i64 751, ptr nonnull %3) #18
  %4 = getelementptr inbounds nuw i8, ptr %0, i64 46
  %5 = getelementptr inbounds nuw i8, ptr %0, i64 44
  %6 = load i8, ptr %5, align 4, !tbaa !31
  %7 = zext i8 %6 to i64
  %8 = call zeroext i1 @uriencode(ptr noundef nonnull %4, ptr noundef nonnull %3, i64 noundef %7, i64 noundef 751) #18
  %9 = getelementptr inbounds nuw i8, ptr %0, i64 40
  %10 = load i32, ptr %9, align 4, !tbaa !9
  %11 = icmp slt i32 %10, 3
  br i1 %11, label %12, label %16

12:                                               ; preds = %2
  %13 = sext i32 %10 to i64
  %14 = getelementptr inbounds [3 x ptr], ptr @__const._logger_parse_ide.cmd_map, i64 0, i64 %13
  %15 = load ptr, ptr %14, align 8, !tbaa !95
  br label %16

16:                                               ; preds = %12, %2
  %.0 = phi ptr [ %15, %12 ], [ @.str.30, %2 ]
  %17 = getelementptr inbounds nuw i8, ptr %0, i64 36
  %18 = getelementptr inbounds nuw i8, ptr %0, i64 16
  %19 = load i64, ptr %18, align 8, !tbaa !91
  %20 = getelementptr inbounds nuw i8, ptr %0, i64 24
  %21 = load i64, ptr %20, align 8, !tbaa !92
  %22 = getelementptr inbounds nuw i8, ptr %0, i64 8
  %23 = load i64, ptr %22, align 8, !tbaa !13
  %24 = getelementptr inbounds nuw i8, ptr %0, i64 45
  %25 = load i8, ptr %24, align 1, !tbaa !31
  %26 = load i32, ptr %17, align 4, !tbaa !9
  %27 = icmp sgt i32 %26, 0
  %28 = add nsw i32 %26, -2
  %spec.select = select i1 %27, i32 %28, i32 0
  %29 = zext i8 %25 to i32
  %30 = trunc i64 %21 to i32
  %31 = trunc i64 %19 to i32
  %32 = call i32 (ptr, i64, ptr, ...) @snprintf(ptr noundef nonnull dereferenceable(1) %1, i64 noundef 4096, ptr noundef nonnull @.str.56, i32 noundef %31, i32 noundef %30, i64 noundef %23, ptr noundef nonnull %3, ptr noundef %.0, i32 noundef %29, i32 noundef %spec.select) #18
  call void @llvm.lifetime.end.p0(i64 751, ptr nonnull %3) #18
  ret i32 %32
}